; Function Attrs: mustprogress uwtable
define dso_local void @_ZN3ozz2io6ExternINSt7__cxx1112basic_stringIcSt11char_traitsIcENS_12StdAllocatorIcEEEEE4SaveERNS0_8OArchiveEPKS8_m(ptr noundef nonnull readonly align 8 captures(none) dereferenceable(9) %0, ptr noundef readonly captures(none) %1, i64 noundef %2) local_unnamed_addr #0 align 2 personality ptr @__gxx_personality_v0 {
  %4 = alloca i8, align 1
  %5 = alloca i32, align 4
  %.not = icmp eq i64 %2, 0
  br i1 %.not, label %._crit_edge, label %.lr.ph

.lr.ph:                                           ; preds = %3
  %6 = getelementptr inbounds nuw i8, ptr %0, i64 8
  br label %7

._crit_edge:                                      ; preds = %_ZN3ozz2io8OArchivelsINS0_8internal5ArrayIKcEEEEvRKT_.exit, %3
  ret void

7:                                                ; preds = %.lr.ph, %_ZN3ozz2io8OArchivelsINS0_8internal5ArrayIKcEEEEvRKT_.exit
  %.013 = phi i64 [ 0, %.lr.ph ], [ %37, %_ZN3ozz2io8OArchivelsINS0_8internal5ArrayIKcEEEEvRKT_.exit ]
  %8 = getelementptr inbounds nuw %"class.std::__cxx11::basic_string", ptr %1, i64 %.013
  %9 = getelementptr inbounds nuw i8, ptr %8, i64 8
  %10 = load i64, ptr %9, align 8, !tbaa !4
  %11 = trunc i64 %10 to i32
  call void @llvm.lifetime.start.p0(i64 4, ptr nonnull %5) #9
  %12 = load i8, ptr %6, align 8, !tbaa !12, !range !16, !noundef !17
  %13 = trunc nuw i8 %12 to i1
  %.sroa.0.0.insert.insert.i = call i32 @llvm.bswap.i32(i32 %11)
  %spec.select.i = select i1 %13, i32 %.sroa.0.0.insert.insert.i, i32 %11
  store i32 %spec.select.i, ptr %5, align 4, !tbaa !18
  %14 = load ptr, ptr %0, align 8, !tbaa !20
  %15 = load ptr, ptr %14, align 8, !tbaa !21
  %16 = getelementptr inbounds nuw i8, ptr %15, i64 16
  %17 = load ptr, ptr %16, align 8
  %18 = call noundef i64 %17(ptr noundef nonnull align 8 dereferenceable(8) %14, ptr noundef nonnull %5, i64 noundef 4)
  call void @llvm.lifetime.end.p0(i64 4, ptr nonnull %5) #9
  %19 = load ptr, ptr %8, align 8, !tbaa !23
  %20 = and i64 %10, 4294967295
  %21 = load i8, ptr %6, align 8, !tbaa !12, !range !16, !noundef !17
  %22 = trunc nuw i8 %21 to i1
  br i1 %22, label %.preheader.i.i, label %31

.preheader.i.i:                                   ; preds = %7
  %.not8.i.i = icmp eq i64 %20, 0
  br i1 %.not8.i.i, label %_ZN3ozz2io8OArchivelsINS0_8internal5ArrayIKcEEEEvRKT_.exit, label %.lr.ph.i.i

.lr.ph.i.i:                                       ; preds = %.preheader.i.i, %.lr.ph.i.i
  %.0.i5.i.i = phi i64 [ %30, %.lr.ph.i.i ], [ 0, %.preheader.i.i ]
  %23 = getelementptr inbounds nuw i8, ptr %19, i64 %.0.i5.i.i
  %24 = load i8, ptr %23, align 1, !tbaa !24
  call void @llvm.lifetime.start.p0(i64 1, ptr nonnull %4) #9
  store i8 %24, ptr %4, align 1, !tbaa !24
  %25 = load ptr, ptr %0, align 8, !tbaa !20
  %26 = load ptr, ptr %25, align 8, !tbaa !21
  %27 = getelementptr inbounds nuw i8, ptr %26, i64 16
  %28 = load ptr, ptr %27, align 8
  %29 = call noundef i64 %28(ptr noundef nonnull align 8 dereferenceable(8) %25, ptr noundef nonnull %4, i64 noundef 1)
  call void @llvm.lifetime.end.p0(i64 1, ptr nonnull %4) #9
  %30 = add nuw nsw i64 %.0.i5.i.i, 1
  %exitcond.not = icmp eq i64 %30, %20
  br i1 %exitcond.not, label %_ZN3ozz2io8OArchivelsINS0_8internal5ArrayIKcEEEEvRKT_.exit, label %.lr.ph.i.i, !llvm.loop !25

31:                                               ; preds = %7
  %32 = load ptr, ptr %0, align 8, !tbaa !20
  %33 = load ptr, ptr %32, align 8, !tbaa !21
  %34 = getelementptr inbounds nuw i8, ptr %33, i64 16
  %35 = load ptr, ptr %34, align 8
  %36 = call noundef i64 %35(ptr noundef nonnull align 8 dereferenceable(8) %32, ptr noundef %19, i64 noundef %20)
  br label %_ZN3ozz2io8OArchivelsINS0_8internal5ArrayIKcEEEEvRKT_.exit

_ZN3ozz2io8OArchivelsINS0_8internal5ArrayIKcEEEEvRKT_.exit: ; preds = %.lr.ph.i.i, %.preheader.i.i, %31
  %37 = add nuw i64 %.013, 1
  %exitcond14.not = icmp eq i64 %37, %2
  br i1 %exitcond14.not, label %._crit_edge, label %7, !llvm.loop !27
}